target datalayout = "e-m:e-p270:32:32-p271:32:32-p272:64:64-i64:64-i128:128-f80:128-n8:16:32:64-S128"
target triple = "x86_64-pc-linux-gnu"

%class.macro_util = type { ptr, %class.bv_util, %class.arith_util, %class.arith_rewriter, %class.bv_rewriter, ptr, ptr }
%class.bv_util = type { %class.bv_recognizers, ptr, ptr }
%class.bv_recognizers = type { i32 }
%class.arith_util = type { ptr, ptr }
%class.arith_rewriter = type { %class.poly_rewriter.base, i8, i8, i8, i8, i8, i8, i8, i8, i32 }
%class.poly_rewriter.base = type <{ %class.arith_rewriter_core.base, [5 x i8], ptr, %class.obj_map, i8, i8, [2 x i8], i32, i8, i8, i8, i8 }>
%class.arith_rewriter_core.base = type <{ ptr, %class.arith_util, %class.scoped_ptr, i8, i8, i8 }>
%class.scoped_ptr = type { ptr }
%class.obj_map = type { %class.core_hashtable }
%class.core_hashtable = type <{ ptr, i32, i32, i32, [4 x i8] }>
%class.bv_rewriter = type <{ %class.poly_rewriter.base.1, [4 x i8], %class.mk_extract_proc, %class.arith_util, i8, i8, i8, i8, i8, i8, i8, i8, i8, i8, i8, i8, i8, [3 x i8] }>
%class.poly_rewriter.base.1 = type <{ %class.bv_rewriter_core, ptr, %class.obj_map, i8, i8, [2 x i8], i32, i8, i8, i8, i8 }>
%class.bv_rewriter_core = type { ptr, %class.bv_util, %class.obj_ref }
%class.obj_ref = type { ptr, ptr }
%class.mk_extract_proc = type { ptr, i32, i32, ptr, ptr }

; Function Attrs: mustprogress uwtable
define linkonce_odr hidden noundef zeroext i1 @_ZNK14bv_recognizers5is_bvEPK4expr(ptr noundef nonnull align 4 dereferenceable(4) %0, ptr noundef %1) #4 comdat align 2 {
  %3 = alloca ptr, align 8
  %4 = alloca ptr, align 8
  store ptr %0, ptr %3, align 8, !tbaa !51
  store ptr %1, ptr %4, align 8, !tbaa !50
  %5 = load ptr, ptr %3, align 8
  %6 = load ptr, ptr %4, align 8, !tbaa !50
  %7 = call noundef ptr @_ZNK4expr8get_sortEv(ptr noundef nonnull align 4 dereferenceable(16) %6)
  %8 = call noundef zeroext i1 @_ZNK14bv_recognizers10is_bv_sortEPK4sort(ptr noundef nonnull align 4 dereferenceable(4) %5, ptr noundef %7)
  ret i1 %8
}

; Function Attrs: mustprogress uwtable
define linkonce_odr hidden void @_ZN13poly_rewriterI19arith_rewriter_coreE6mk_addEP4exprS3_R7obj_refIS2_11ast_managerE(ptr noundef nonnull align 8 dereferenceable(84) %0, ptr noundef %1, ptr noundef %2, ptr noundef nonnull align 8 dereferenceable(16) %3) #4 comdat align 2 {
  %5 = alloca ptr, align 8
  %6 = alloca ptr, align 8
  %7 = alloca ptr, align 8
  %8 = alloca ptr, align 8
  %9 = alloca [2 x ptr], align 16
  store ptr %0, ptr %5, align 8, !tbaa !48
  store ptr %1, ptr %6, align 8, !tbaa !50
  store ptr %2, ptr %7, align 8, !tbaa !50
  store ptr %3, ptr %8, align 8, !tbaa !63
  %10 = load ptr, ptr %5, align 8
  call void @llvm.lifetime.start.p0(i64 16, ptr %9) #3
  %11 = load ptr, ptr %6, align 8, !tbaa !50
  store ptr %11, ptr %9, align 8, !tbaa !50
  %12 = getelementptr inbounds ptr, ptr %9, i64 1
  %13 = load ptr, ptr %7, align 8, !tbaa !50
  store ptr %13, ptr %12, align 8, !tbaa !50
  %14 = getelementptr inbounds [2 x ptr], ptr %9, i64 0, i64 0
  %15 = load ptr, ptr %8, align 8, !tbaa !63
  call void @_ZN13poly_rewriterI19arith_rewriter_coreE6mk_addEjPKP4exprR7obj_refIS2_11ast_managerE(ptr noundef nonnull align 8 dereferenceable(84) %10, i32 noundef 2, ptr noundef %14, ptr noundef nonnull align 8 dereferenceable(16) %15)
  call void @llvm.lifetime.end.p0(i64 16, ptr %9) #3
  ret void
}

; Function Attrs: mustprogress uwtable
define linkonce_odr hidden void @_ZN13poly_rewriterI16bv_rewriter_coreE6mk_addEP4exprS3_R7obj_refIS2_11ast_managerE(ptr noundef nonnull align 8 dereferenceable(92) %0, ptr noundef %1, ptr noundef %2, ptr noundef nonnull align 8 dereferenceable(16) %3) #4 comdat align 2 {
  %5 = alloca ptr, align 8
  %6 = alloca ptr, align 8
  %7 = alloca ptr, align 8
  %8 = alloca ptr, align 8
  %9 = alloca [2 x ptr], align 16
  store ptr %0, ptr %5, align 8, !tbaa !72
  store ptr %1, ptr %6, align 8, !tbaa !50
  store ptr %2, ptr %7, align 8, !tbaa !50
  store ptr %3, ptr %8, align 8, !tbaa !63
  %10 = load ptr, ptr %5, align 8
  call void @llvm.lifetime.start.p0(i64 16, ptr %9) #3
  %11 = load ptr, ptr %6, align 8, !tbaa !50
  store ptr %11, ptr %9, align 8, !tbaa !50
  %12 = getelementptr inbounds ptr, ptr %9, i64 1
  %13 = load ptr, ptr %7, align 8, !tbaa !50
  store ptr %13, ptr %12, align 8, !tbaa !50
  %14 = getelementptr inbounds [2 x ptr], ptr %9, i64 0, i64 0
  %15 = load ptr, ptr %8, align 8, !tbaa !63
  call void @_ZN13poly_rewriterI16bv_rewriter_coreE6mk_addEjPKP4exprR7obj_refIS2_11ast_managerE(ptr noundef nonnull align 8 dereferenceable(92) %10, i32 noundef 2, ptr noundef %14, ptr noundef nonnull align 8 dereferenceable(16) %15)
  call void @llvm.lifetime.end.p0(i64 16, ptr %9) #3
  ret void
}

; Function Attrs: mustprogress uwtable
define hidden noundef zeroext i1 @_ZNK10macro_util5is_bvEP4expr(ptr noundef nonnull align 8 dereferenceable(320) %0, ptr noundef %1) #4 align 2 {
  %3 = alloca ptr, align 8
  %4 = alloca ptr, align 8
  store ptr %0, ptr %3, align 8, !tbaa !3
  store ptr %1, ptr %4, align 8, !tbaa !50
  %5 = load ptr, ptr %3, align 8
  %6 = getelementptr inbounds nuw %class.macro_util, ptr %5, i32 0, i32 1
  %7 = load ptr, ptr %4, align 8, !tbaa !50
  %8 = call noundef zeroext i1 @_ZNK14bv_recognizers5is_bvEPK4expr(ptr noundef nonnull align 4 dereferenceable(4) %6, ptr noundef %7)
  ret i1 %8
}

; Function Attrs: mustprogress uwtable
define hidden void @_ZNK10macro_util6mk_addEP4exprS1_R7obj_refIS0_11ast_managerE(ptr noundef nonnull align 8 dereferenceable(320) %0, ptr noundef %1, ptr noundef %2, ptr noundef nonnull align 8 dereferenceable(16) %3) #4 align 2 {
  %5 = alloca ptr, align 8
  %6 = alloca ptr, align 8
  %7 = alloca ptr, align 8
  %8 = alloca ptr, align 8
  store ptr %0, ptr %5, align 8, !tbaa !3
  store ptr %1, ptr %6, align 8, !tbaa !50
  store ptr %2, ptr %7, align 8, !tbaa !50
  store ptr %3, ptr %8, align 8, !tbaa !63
  %9 = load ptr, ptr %5, align 8
  %10 = load ptr, ptr %6, align 8, !tbaa !50
  %11 = call noundef zeroext i1 @_ZNK10macro_util5is_bvEP4expr(ptr noundef nonnull align 8 dereferenceable(320) %9, ptr noundef %10)
  br i1 %11, label %12, label %17

12:                                               ; preds = %4
  %13 = getelementptr inbounds nuw %class.macro_util, ptr %9, i32 0, i32 4
  %14 = load ptr, ptr %6, align 8, !tbaa !50
  %15 = load ptr, ptr %7, align 8, !tbaa !50
  %16 = load ptr, ptr %8, align 8, !tbaa !63
  call void @_ZN13poly_rewriterI16bv_rewriter_coreE6mk_addEP4exprS3_R7obj_refIS2_11ast_managerE(ptr noundef nonnull align 8 dereferenceable(92) %13, ptr noundef %14, ptr noundef %15, ptr noundef nonnull align 8 dereferenceable(16) %16)
  br label %22

17:                                               ; preds = %4
  %18 = getelementptr inbounds nuw %class.macro_util, ptr %9, i32 0, i32 3
  %19 = load ptr, ptr %6, align 8, !tbaa !50
  %20 = load ptr, ptr %7, align 8, !tbaa !50
  %21 = load ptr, ptr %8, align 8, !tbaa !63
  call void @_ZN13poly_rewriterI19arith_rewriter_coreE6mk_addEP4exprS3_R7obj_refIS2_11ast_managerE(ptr noundef nonnull align 8 dereferenceable(84) %18, ptr noundef %19, ptr noundef %20, ptr noundef nonnull align 8 dereferenceable(16) %21)
  br label %22

22:                                               ; preds = %17, %12
  ret void
}